; Function Attrs: mustprogress nofree norecurse nosync nounwind willreturn memory(read, inaccessiblemem: none) uwtable
define hidden noundef i32 @_ZNK7testing8UnitTest16total_test_countEv(ptr noundef nonnull readonly align 8 captures(none) dereferenceable(24) %0) local_unnamed_addr #11 align 2 {
  %2 = getelementptr inbounds nuw i8, ptr %0, i64 16
  %3 = load ptr, ptr %2, align 8
  %4 = getelementptr inbounds nuw i8, ptr %3, i64 128
  %5 = getelementptr inbounds nuw i8, ptr %3, i64 136
  %6 = load ptr, ptr %5, align 8
  %7 = load ptr, ptr %4, align 8
  %.not15.i.i = icmp eq ptr %6, %7
  br i1 %.not15.i.i, label %_ZNK7testing8internal12UnitTestImpl16total_test_countEv.exit, label %.lr.ph.split.us.i.preheader.i

.lr.ph.split.us.i.preheader.i:                    ; preds = %1
  %8 = ptrtoint ptr %6 to i64
  %9 = ptrtoint ptr %7 to i64
  %10 = sub i64 %8, %9
  %11 = ashr exact i64 %10, 3
  %umax.i = tail call i64 @llvm.umax.i64(i64 %11, i64 1)
  br label %.lr.ph.split.us.i.i

.lr.ph.split.us.i.i:                              ; preds = %.lr.ph.split.us.i.i, %.lr.ph.split.us.i.preheader.i
  %.014.us.i.i = phi i64 [ %24, %.lr.ph.split.us.i.i ], [ 0, %.lr.ph.split.us.i.preheader.i ]
  %.01213.us.i.i = phi i32 [ %23, %.lr.ph.split.us.i.i ], [ 0, %.lr.ph.split.us.i.preheader.i ]
  %12 = getelementptr inbounds nuw ptr, ptr %7, i64 %.014.us.i.i
  %13 = load ptr, ptr %12, align 8
  %14 = getelementptr inbounds nuw i8, ptr %13, i64 48
  %15 = getelementptr inbounds nuw i8, ptr %13, i64 56
  %16 = load ptr, ptr %15, align 8
  %17 = load ptr, ptr %14, align 8
  %18 = ptrtoint ptr %16 to i64
  %19 = ptrtoint ptr %17 to i64
  %20 = sub i64 %18, %19
  %21 = lshr exact i64 %20, 3
  %22 = trunc i64 %21 to i32
  %23 = add nsw i32 %.01213.us.i.i, %22
  %24 = add nuw i64 %.014.us.i.i, 1
  %exitcond.not.i = icmp eq i64 %24, %umax.i
  br i1 %exitcond.not.i, label %_ZNK7testing8internal12UnitTestImpl16total_test_countEv.exit, label %.lr.ph.split.us.i.i, !llvm.loop !52

_ZNK7testing8internal12UnitTestImpl16total_test_countEv.exit: ; preds = %.lr.ph.split.us.i.i, %1
  %.012.lcssa.i.i = phi i32 [ 0, %1 ], [ %23, %.lr.ph.split.us.i.i ]
  ret i32 %.012.lcssa.i.i
}